target datalayout = "e-m:e-p270:32:32-p271:32:32-p272:64:64-i64:64-i128:128-f80:128-n8:16:32:64-S128"
target triple = "x86_64-pc-linux-gnu"

; Function Attrs: nounwind uwtable
define internal void @unpremultiplyf32offset(ptr noundef %0, ptr noundef %1, ptr noundef %2, i64 noundef %3, i64 noundef %4, i64 noundef %5, i32 noundef %6, i32 noundef %7, i32 noundef %8, i32 noundef %9, i32 noundef %10) #1 {
  %12 = alloca ptr, align 8
  %13 = alloca ptr, align 8
  %14 = alloca ptr, align 8
  %15 = alloca i64, align 8
  %16 = alloca i64, align 8
  %17 = alloca i64, align 8
  %18 = alloca i32, align 4
  %19 = alloca i32, align 4
  %20 = alloca i32, align 4
  %21 = alloca i32, align 4
  %22 = alloca i32, align 4
  %23 = alloca ptr, align 8
  %24 = alloca ptr, align 8
  %25 = alloca ptr, align 8
  %26 = alloca i32, align 4
  %27 = alloca i32, align 4
  %28 = alloca float, align 4
  store ptr %0, ptr %12, align 8, !tbaa !91
  store ptr %1, ptr %13, align 8, !tbaa !91
  store ptr %2, ptr %14, align 8, !tbaa !91
  store i64 %3, ptr %15, align 8, !tbaa !50
  store i64 %4, ptr %16, align 8, !tbaa !50
  store i64 %5, ptr %17, align 8, !tbaa !50
  store i32 %6, ptr %18, align 4, !tbaa !37
  store i32 %7, ptr %19, align 4, !tbaa !37
  store i32 %8, ptr %20, align 4, !tbaa !37
  store i32 %9, ptr %21, align 4, !tbaa !37
  store i32 %10, ptr %22, align 4, !tbaa !37
  call void @llvm.lifetime.start.p0(i64 8, ptr %23) #11
  %29 = load ptr, ptr %12, align 8, !tbaa !91
  store ptr %29, ptr %23, align 8, !tbaa !109
  call void @llvm.lifetime.start.p0(i64 8, ptr %24) #11
  %30 = load ptr, ptr %13, align 8, !tbaa !91
  store ptr %30, ptr %24, align 8, !tbaa !109
  call void @llvm.lifetime.start.p0(i64 8, ptr %25) #11
  %31 = load ptr, ptr %14, align 8, !tbaa !91
  store ptr %31, ptr %25, align 8, !tbaa !109
  call void @llvm.lifetime.start.p0(i64 4, ptr %26) #11
  call void @llvm.lifetime.start.p0(i64 4, ptr %27) #11
  call void @llvm.lifetime.start.p0(i64 4, ptr %28) #11
  %32 = load i32, ptr %22, align 4, !tbaa !37
  %33 = sitofp i32 %32 to float
  %34 = fdiv nsz float %33, 6.553500e+04
  store float %34, ptr %28, align 4, !tbaa !111
  store i32 0, ptr %27, align 4, !tbaa !37
  br label %35

35:                                               ; preds = %98, %11
  %36 = load i32, ptr %27, align 4, !tbaa !37
  %37 = load i32, ptr %19, align 4, !tbaa !37
  %38 = icmp slt i32 %36, %37
  br i1 %38, label %39, label %101

39:                                               ; preds = %35
  store i32 0, ptr %26, align 4, !tbaa !37
  br label %40

40:                                               ; preds = %82, %39
  %41 = load i32, ptr %26, align 4, !tbaa !37
  %42 = load i32, ptr %18, align 4, !tbaa !37
  %43 = icmp slt i32 %41, %42
  br i1 %43, label %44, label %85

44:                                               ; preds = %40
  %45 = load ptr, ptr %24, align 8, !tbaa !109
  %46 = load i32, ptr %26, align 4, !tbaa !37
  %47 = sext i32 %46 to i64
  %48 = getelementptr inbounds float, ptr %45, i64 %47
  %49 = load float, ptr %48, align 4, !tbaa !111
  %50 = fcmp nsz ogt float %49, 0.000000e+00
  br i1 %50, label %51, label %71

51:                                               ; preds = %44
  %52 = load ptr, ptr %23, align 8, !tbaa !109
  %53 = load i32, ptr %26, align 4, !tbaa !37
  %54 = sext i32 %53 to i64
  %55 = getelementptr inbounds float, ptr %52, i64 %54
  %56 = load float, ptr %55, align 4, !tbaa !111
  %57 = load float, ptr %28, align 4, !tbaa !111
  %58 = fsub nsz float %56, %57
  %59 = load ptr, ptr %24, align 8, !tbaa !109
  %60 = load i32, ptr %26, align 4, !tbaa !37
  %61 = sext i32 %60 to i64
  %62 = getelementptr inbounds float, ptr %59, i64 %61
  %63 = load float, ptr %62, align 4, !tbaa !111
  %64 = fdiv nsz float %58, %63
  %65 = load float, ptr %28, align 4, !tbaa !111
  %66 = fadd nsz float %64, %65
  %67 = load ptr, ptr %25, align 8, !tbaa !109
  %68 = load i32, ptr %26, align 4, !tbaa !37
  %69 = sext i32 %68 to i64
  %70 = getelementptr inbounds float, ptr %67, i64 %69
  store float %66, ptr %70, align 4, !tbaa !111
  br label %81

71:                                               ; preds = %44
  %72 = load ptr, ptr %23, align 8, !tbaa !109
  %73 = load i32, ptr %26, align 4, !tbaa !37
  %74 = sext i32 %73 to i64
  %75 = getelementptr inbounds float, ptr %72, i64 %74
  %76 = load float, ptr %75, align 4, !tbaa !111
  %77 = load ptr, ptr %25, align 8, !tbaa !109
  %78 = load i32, ptr %26, align 4, !tbaa !37
  %79 = sext i32 %78 to i64
  %80 = getelementptr inbounds float, ptr %77, i64 %79
  store float %76, ptr %80, align 4, !tbaa !111
  br label %81

81:                                               ; preds = %71, %51
  br label %82

82:                                               ; preds = %81
  %83 = load i32, ptr %26, align 4, !tbaa !37
  %84 = add nsw i32 %83, 1
  store i32 %84, ptr %26, align 4, !tbaa !37
  br label %40, !llvm.loop !113

85:                                               ; preds = %40
  %86 = load i64, ptr %17, align 8, !tbaa !50
  %87 = sdiv i64 %86, 4
  %88 = load ptr, ptr %25, align 8, !tbaa !109
  %89 = getelementptr inbounds float, ptr %88, i64 %87
  store ptr %89, ptr %25, align 8, !tbaa !109
  %90 = load i64, ptr %15, align 8, !tbaa !50
  %91 = sdiv i64 %90, 4
  %92 = load ptr, ptr %23, align 8, !tbaa !109
  %93 = getelementptr inbounds float, ptr %92, i64 %91
  store ptr %93, ptr %23, align 8, !tbaa !109
  %94 = load i64, ptr %16, align 8, !tbaa !50
  %95 = sdiv i64 %94, 4
  %96 = load ptr, ptr %24, align 8, !tbaa !109
  %97 = getelementptr inbounds float, ptr %96, i64 %95
  store ptr %97, ptr %24, align 8, !tbaa !109
  br label %98

98:                                               ; preds = %85
  %99 = load i32, ptr %27, align 4, !tbaa !37
  %100 = add nsw i32 %99, 1
  store i32 %100, ptr %27, align 4, !tbaa !37
  br label %35, !llvm.loop !114

101:                                              ; preds = %35
  call void @llvm.lifetime.end.p0(i64 4, ptr %28) #11
  call void @llvm.lifetime.end.p0(i64 4, ptr %27) #11
  call void @llvm.lifetime.end.p0(i64 4, ptr %26) #11
  call void @llvm.lifetime.end.p0(i64 8, ptr %25) #11
  call void @llvm.lifetime.end.p0(i64 8, ptr %24) #11
  call void @llvm.lifetime.end.p0(i64 8, ptr %23) #11
  ret void
}