; Function Attrs: nofree norecurse nosync nounwind memory(argmem: readwrite) uwtable
define internal void @unpremultiplyf32offset(ptr noundef readonly captures(none) %0, ptr noundef readonly captures(none) %1, ptr noundef writeonly captures(none) %2, i64 noundef %3, i64 noundef %4, i64 noundef %5, i32 noundef %6, i32 noundef %7, i32 %8, i32 %9, i32 noundef %10) #5 {
  %12 = sitofp i32 %10 to float
  %13 = fdiv nsz float %12, 6.553500e+04
  %14 = icmp sgt i32 %7, 0
  br i1 %14, label %.preheader.lr.ph, label %._crit_edge39

.preheader.lr.ph:                                 ; preds = %11
  %15 = icmp sgt i32 %6, 0
  %16 = sdiv i64 %5, 4
  %17 = sdiv i64 %3, 4
  %18 = sdiv i64 %4, 4
  br i1 %15, label %.preheader.us.preheader, label %._crit_edge39

.preheader.us.preheader:                          ; preds = %.preheader.lr.ph
  %wide.trip.count = zext nneg i32 %6 to i64
  br label %.preheader.us

.preheader.us:                                    ; preds = %.preheader.us.preheader, %._crit_edge.us
  %.038.us = phi ptr [ %30, %._crit_edge.us ], [ %0, %.preheader.us.preheader ]
  %.02937.us = phi i32 [ %32, %._crit_edge.us ], [ 0, %.preheader.us.preheader ]
  %.03136.us = phi ptr [ %29, %._crit_edge.us ], [ %2, %.preheader.us.preheader ]
  %.03235.us = phi ptr [ %31, %._crit_edge.us ], [ %1, %.preheader.us.preheader ]
  br label %19

19:                                               ; preds = %.preheader.us, %19
  %indvars.iv = phi i64 [ 0, %.preheader.us ], [ %indvars.iv.next, %19 ]
  %20 = getelementptr inbounds nuw float, ptr %.03235.us, i64 %indvars.iv
  %21 = load float, ptr %20, align 4, !tbaa !93
  %22 = fcmp nsz ogt float %21, 0.000000e+00
  %23 = getelementptr inbounds nuw float, ptr %.038.us, i64 %indvars.iv
  %24 = load float, ptr %23, align 4, !tbaa !93
  %25 = fsub nsz float %24, %13
  %26 = fdiv nsz float %25, %21
  %27 = fadd nsz float %13, %26
  %.sink = select i1 %22, float %27, float %24
  %28 = getelementptr inbounds nuw float, ptr %.03136.us, i64 %indvars.iv
  store float %.sink, ptr %28, align 4, !tbaa !93
  %indvars.iv.next = add nuw nsw i64 %indvars.iv, 1
  %exitcond.not = icmp eq i64 %indvars.iv.next, %wide.trip.count
  br i1 %exitcond.not, label %._crit_edge.us, label %19, !llvm.loop !95

._crit_edge.us:                                   ; preds = %19
  %29 = getelementptr inbounds float, ptr %.03136.us, i64 %16
  %30 = getelementptr inbounds float, ptr %.038.us, i64 %17
  %31 = getelementptr inbounds float, ptr %.03235.us, i64 %18
  %32 = add nuw nsw i32 %.02937.us, 1
  %exitcond42.not = icmp eq i32 %32, %7
  br i1 %exitcond42.not, label %._crit_edge39, label %.preheader.us, !llvm.loop !96

._crit_edge39:                                    ; preds = %._crit_edge.us, %.preheader.lr.ph, %11
  ret void
}